; ModuleID = 'bench/spike/original/f32_to_i32_r_minMag.ll'
source_filename = "bench/spike/original/f32_to_i32_r_minMag.ll"
target datalayout = "e-m:e-p270:32:32-p271:32:32-p272:64:64-i64:64-i128:128-f80:128-n8:16:32:64-S128"
target triple = "x86_64-pc-linux-gnu"

@softfloat_exceptionFlags = external thread_local local_unnamed_addr global i8, align 1

; Function Attrs: nounwind uwtable
define range(i64 -2147483648, 2147483648) i64 @f32_to_i32_r_minMag(i32 %0, i1 noundef zeroext %1) local_unnamed_addr #0 {
  %3 = zext i32 %0 to i64
  %4 = lshr i64 %3, 23
  %5 = and i64 %4, 255
  %6 = and i64 %3, 8388607
  %7 = sub nsw i64 158, %5
  %8 = icmp samesign ult i64 %5, 127
  br i1 %8, label %9, label %15

9:                                                ; preds = %2
  %10 = or i64 %5, %6
  %.not28 = icmp ne i64 %10, 0
  %or.cond30.not = and i1 %1, %.not28
  br i1 %or.cond30.not, label %11, label %36

11:                                               ; preds = %9
  %12 = tail call align 1 ptr @llvm.threadlocal.address.p0(ptr align 1 @softfloat_exceptionFlags)
  %13 = load i8, ptr %12, align 1, !tbaa !3
  %14 = or i8 %13, 1
  store i8 %14, ptr %12, align 1, !tbaa !3
  br label %36

15:                                               ; preds = %2
  %.not = icmp sgt i32 %0, -1
  %16 = icmp samesign ugt i64 %5, 157
  br i1 %16, label %17, label %24

17:                                               ; preds = %15
  %18 = icmp eq i32 %0, -822083584
  br i1 %18, label %36, label %19

19:                                               ; preds = %17
  tail call void @softfloat_raiseFlags(i8 noundef zeroext 16) #3
  %20 = icmp eq i64 %5, 255
  %21 = icmp ne i64 %6, 0
  %or.cond = and i1 %21, %20
  %22 = or i1 %.not, %or.cond
  %23 = select i1 %22, i64 2147483647, i64 -2147483648
  br label %36

24:                                               ; preds = %15
  %25 = shl nuw nsw i64 %6, 8
  %26 = or disjoint i64 %25, 2147483648
  %27 = lshr i64 %26, %7
  %28 = shl nuw nsw i64 %27, %7
  %.not27 = icmp ne i64 %28, %26
  %or.cond32.not = select i1 %1, i1 %.not27, i1 false
  br i1 %or.cond32.not, label %29, label %33

29:                                               ; preds = %24
  %30 = tail call align 1 ptr @llvm.threadlocal.address.p0(ptr align 1 @softfloat_exceptionFlags)
  %31 = load i8, ptr %30, align 1, !tbaa !3
  %32 = or i8 %31, 1
  store i8 %32, ptr %30, align 1, !tbaa !3
  br label %33

33:                                               ; preds = %29, %24
  %34 = sub nsw i64 0, %27
  %35 = select i1 %.not, i64 %27, i64 %34
  br label %36

36:                                               ; preds = %17, %9, %11, %33, %19
  %.0 = phi i64 [ %23, %19 ], [ %35, %33 ], [ 0, %11 ], [ 0, %9 ], [ -2147483648, %17 ]
  ret i64 %.0
}

; Function Attrs: mustprogress nocallback nofree nosync nounwind speculatable willreturn memory(none)
declare nonnull ptr @llvm.threadlocal.address.p0(ptr nonnull) #1

declare void @softfloat_raiseFlags(i8 noundef zeroext) local_unnamed_addr #2


!llvm.module.flags = !{!0, !1, !2}

!0 = !{i32 1, !"wchar_size", i32 4}
!1 = !{i32 8, !"PIC Level", i32 2}
!2 = !{i32 7, !"uwtable", i32 2}
!3 = !{!4, !4, i64 0}
!4 = !{!"omnipotent char", !5, i64 0}
!5 = !{!"Simple C/C++ TBAA"}
